target datalayout = "e-m:e-p270:32:32-p271:32:32-p272:64:64-i64:64-i128:128-f80:128-n8:16:32:64-S128"
target triple = "x86_64-unknown-linux-gnu"

%struct.grpc_call_element = type { ptr, ptr, ptr }
%struct.grpc_closure = type { %union.anon.138, ptr, ptr, %union.anon.140 }
%union.anon.138 = type { ptr }
%union.anon.140 = type { i64 }
%struct.connected_channel_call_data = type { ptr, [6 x %struct.callback_state], %struct.callback_state, %struct.callback_state, %struct.callback_state }
%struct.callback_state = type { %struct.grpc_closure, ptr, ptr, ptr }
%"class.absl::lts_20230802::Status" = type { i64 }
%struct.connected_channel_channel_data = type { ptr }
%struct.grpc_call_element_args = type { ptr, ptr, ptr, ptr, double, %"class.grpc_core::Timestamp", ptr, ptr }
%"class.grpc_core::Timestamp" = type { i64 }
%struct.grpc_call_stack = type { %struct.grpc_stream_refcount, i64 }
%struct.grpc_stream_refcount = type { %"class.grpc_core::RefCount", %struct.grpc_closure }
%"class.grpc_core::RefCount" = type { %"struct.std::atomic.162" }
%"struct.std::atomic.162" = type { %"struct.std::__atomic_base.163" }
%"struct.std::__atomic_base.163" = type { i64 }

; Function Attrs: mustprogress nounwind uwtable
define linkonce_odr noundef i64 @_ZN4absl12lts_202308026Status16CodeToInlinedRepENS0_10StatusCodeE(i32 noundef %code) #4 comdat align 2 {
entry:
  %code.addr = alloca i32, align 4
  store i32 %code, ptr %code.addr, align 4
  %0 = load i32, ptr %code.addr, align 4
  %conv = sext i32 %0 to i64
  %shl = shl i64 %conv, 2
  ret i64 %shl
}

; Function Attrs: mustprogress uwtable
define linkonce_odr void @_ZN4absl12lts_202308026StatusC2Ev(ptr noundef nonnull align 8 dereferenceable(8) %this) unnamed_addr #5 comdat align 2 {
entry:
  %this.addr = alloca ptr, align 8
  store ptr %this, ptr %this.addr, align 8
  %this1 = load ptr, ptr %this.addr, align 8
  %rep_ = getelementptr inbounds %"class.absl::lts_20230802::Status", ptr %this1, i32 0, i32 0
  %call = call noundef i64 @_ZN4absl12lts_202308026Status16CodeToInlinedRepENS0_10StatusCodeE(i32 noundef 0)
  store i64 %call, ptr %rep_, align 8
  ret void
}

; Function Attrs: mustprogress uwtable
define linkonce_odr void @_ZN4absl12lts_202308028OkStatusEv(ptr noalias sret(%"class.absl::lts_20230802::Status") align 8 %agg.result) #5 comdat {
entry:
  %result.ptr = alloca ptr, align 8
  store ptr %agg.result, ptr %result.ptr, align 8
  call void @_ZN4absl12lts_202308026StatusC2Ev(ptr noundef nonnull align 8 dereferenceable(8) %agg.result)
  ret void
}

; Function Attrs: mustprogress uwtable
define internal void @_ZL32connected_channel_init_call_elemP17grpc_call_elementPK22grpc_call_element_args(ptr noalias sret(%"class.absl::lts_20230802::Status") align 8 %agg.result, ptr noundef %elem, ptr noundef %args) #5 {
entry:
  %result.ptr = alloca ptr, align 8
  %elem.addr = alloca ptr, align 8
  %args.addr = alloca ptr, align 8
  %calld = alloca ptr, align 8
  %chand = alloca ptr, align 8
  store ptr %agg.result, ptr %result.ptr, align 8
  store ptr %elem, ptr %elem.addr, align 8
  store ptr %args, ptr %args.addr, align 8
  %0 = load ptr, ptr %elem.addr, align 8
  %call_data = getelementptr inbounds %struct.grpc_call_element, ptr %0, i32 0, i32 2
  %1 = load ptr, ptr %call_data, align 8
  store ptr %1, ptr %calld, align 8
  %2 = load ptr, ptr %elem.addr, align 8
  %channel_data = getelementptr inbounds %struct.grpc_call_element, ptr %2, i32 0, i32 1
  %3 = load ptr, ptr %channel_data, align 8
  store ptr %3, ptr %chand, align 8
  %4 = load ptr, ptr %args.addr, align 8
  %call_combiner = getelementptr inbounds %struct.grpc_call_element_args, ptr %4, i32 0, i32 7
  %5 = load ptr, ptr %call_combiner, align 8
  %6 = load ptr, ptr %calld, align 8
  %call_combiner1 = getelementptr inbounds %struct.connected_channel_call_data, ptr %6, i32 0, i32 0
  store ptr %5, ptr %call_combiner1, align 8
  %7 = load ptr, ptr %chand, align 8
  %transport = getelementptr inbounds %struct.connected_channel_channel_data, ptr %7, i32 0, i32 0
  %8 = load ptr, ptr %transport, align 8
  %vtable = load ptr, ptr %8, align 8
  %vfn = getelementptr inbounds ptr, ptr %vtable, i64 3
  %9 = load ptr, ptr %vfn, align 8
  %call = call noundef ptr %9(ptr noundef nonnull align 8 dereferenceable(8) %8)
  %10 = load ptr, ptr %calld, align 8
  %add.ptr = getelementptr inbounds i8, ptr %10, i64 512
  %11 = load ptr, ptr %args.addr, align 8
  %call_stack = getelementptr inbounds %struct.grpc_call_element_args, ptr %11, i32 0, i32 0
  %12 = load ptr, ptr %call_stack, align 8
  %refcount = getelementptr inbounds %struct.grpc_call_stack, ptr %12, i32 0, i32 0
  %13 = load ptr, ptr %args.addr, align 8
  %server_transport_data = getelementptr inbounds %struct.grpc_call_element_args, ptr %13, i32 0, i32 1
  %14 = load ptr, ptr %server_transport_data, align 8
  %15 = load ptr, ptr %args.addr, align 8
  %arena = getelementptr inbounds %struct.grpc_call_element_args, ptr %15, i32 0, i32 6
  %16 = load ptr, ptr %arena, align 8
  %vtable2 = load ptr, ptr %call, align 8
  %vfn3 = getelementptr inbounds ptr, ptr %vtable2, i64 1
  %17 = load ptr, ptr %vfn3, align 8
  call void %17(ptr noundef nonnull align 8 dereferenceable(8) %call, ptr noundef %add.ptr, ptr noundef %refcount, ptr noundef %14, ptr noundef %16)
  call void @_ZN4absl12lts_202308028OkStatusEv(ptr sret(%"class.absl::lts_20230802::Status") align 8 %agg.result)
  ret void
}