; Function Attrs: mustprogress uwtable
define internal void @_ZL32connected_channel_init_call_elemP17grpc_call_elementPK22grpc_call_element_args(ptr noalias nocapture writeonly sret(%"class.absl::lts_20230802::Status") align 8 %agg.result, ptr nocapture noundef readonly %elem, ptr nocapture noundef readonly %args) #3 {
entry:
  %call_data = getelementptr inbounds i8, ptr %elem, i64 16
  %0 = load ptr, ptr %call_data, align 8
  %channel_data = getelementptr inbounds i8, ptr %elem, i64 8
  %1 = load ptr, ptr %channel_data, align 8
  %call_combiner = getelementptr inbounds i8, ptr %args, i64 56
  %2 = load ptr, ptr %call_combiner, align 8
  store ptr %2, ptr %0, align 8
  %3 = load ptr, ptr %1, align 8
  %vtable = load ptr, ptr %3, align 8
  %vfn = getelementptr inbounds i8, ptr %vtable, i64 24
  %4 = load ptr, ptr %vfn, align 8
  %call = tail call noundef ptr %4(ptr noundef nonnull align 8 dereferenceable(8) %3)
  %add.ptr = getelementptr inbounds i8, ptr %0, i64 512
  %5 = load ptr, ptr %args, align 8
  %server_transport_data = getelementptr inbounds i8, ptr %args, i64 8
  %6 = load ptr, ptr %server_transport_data, align 8
  %arena = getelementptr inbounds i8, ptr %args, i64 48
  %7 = load ptr, ptr %arena, align 8
  %vtable2 = load ptr, ptr %call, align 8
  %vfn3 = getelementptr inbounds i8, ptr %vtable2, i64 8
  %8 = load ptr, ptr %vfn3, align 8
  tail call void %8(ptr noundef nonnull align 8 dereferenceable(8) %call, ptr noundef nonnull %add.ptr, ptr noundef %5, ptr noundef %6, ptr noundef %7)
  store i64 0, ptr %agg.result, align 8, !alias.scope !4
  ret void
}